; ModuleID = 'source-C-CXX/59/1587.c'
source_filename = "source-C-CXX/59/1587.c"
target datalayout = "e-m:e-p270:32:32-p271:32:32-p272:64:64-i64:64-f80:128-n8:16:32:64-S128"
target triple = "x86_64-pc-linux-gnu"

@.str = private unnamed_addr constant [3 x i8] c"%d\00", align 1
@.str.1 = private unnamed_addr constant [7 x i8] c"%d %d\0A\00", align 1
@str = private unnamed_addr constant [6 x i8] c"empty\00", align 1

; Function Attrs: nofree nounwind sspstrong uwtable
define dso_local i32 @main() local_unnamed_addr #0 {
  %1 = alloca i32, align 4
  %2 = bitcast i32* %1 to i8*
  call void @llvm.lifetime.start.p0i8(i64 4, i8* nonnull %2) #5
  %3 = call i32 (i8*, ...) @__isoc99_scanf(i8* getelementptr inbounds ([3 x i8], [3 x i8]* @.str, i64 0, i64 0), i32* nonnull %1)
  %4 = load i32, i32* %1, align 4, !tbaa !5
  %5 = icmp slt i32 %4, 0
  br i1 %5, label %6, label %10, !prof !9

6:                                                ; preds = %0
  %7 = sitofp i32 %4 to double
  %8 = call double @sqrt(double %7) #5
  %9 = load i32, i32* %1, align 4, !tbaa !5
  br label %10

10:                                               ; preds = %0, %6
  %11 = phi i32 [ %4, %0 ], [ %9, %6 ]
  %12 = icmp slt i32 %11, 5
  br i1 %12, label %43, label %13

13:                                               ; preds = %10, %36
  %14 = phi i32 [ %37, %36 ], [ %11, %10 ]
  %15 = phi i32 [ %38, %36 ], [ 0, %10 ]
  %16 = phi i32 [ %39, %36 ], [ 5, %10 ]
  %17 = add nsw i32 %16, -2
  br label %18

18:                                               ; preds = %13, %25
  %19 = phi i32 [ %26, %25 ], [ 2, %13 ]
  %20 = urem i32 %16, %19
  %21 = icmp eq i32 %20, 0
  br i1 %21, label %28, label %22

22:                                               ; preds = %18
  %23 = urem i32 %17, %19
  %24 = icmp eq i32 %23, 0
  br i1 %24, label %28, label %25

25:                                               ; preds = %22
  %26 = add nuw nsw i32 %19, 1
  %27 = icmp eq i32 %26, %16
  br i1 %27, label %28, label %18, !llvm.loop !10

28:                                               ; preds = %25, %22, %18
  %29 = phi i32 [ %16, %25 ], [ %19, %22 ], [ %19, %18 ]
  %30 = add nsw i32 %16, -3
  %31 = icmp ugt i32 %29, %30
  br i1 %31, label %32, label %36

32:                                               ; preds = %28
  %33 = call i32 (i8*, ...) @printf(i8* nonnull dereferenceable(1) getelementptr inbounds ([7 x i8], [7 x i8]* @.str.1, i64 0, i64 0), i32 %17, i32 %16)
  %34 = add nsw i32 %15, 1
  %35 = load i32, i32* %1, align 4, !tbaa !5
  br label %36

36:                                               ; preds = %28, %32
  %37 = phi i32 [ %35, %32 ], [ %14, %28 ]
  %38 = phi i32 [ %34, %32 ], [ %15, %28 ]
  %39 = add nuw nsw i32 %16, 1
  %40 = icmp slt i32 %16, %37
  br i1 %40, label %13, label %41, !llvm.loop !12

41:                                               ; preds = %36
  %42 = icmp eq i32 %38, 0
  br i1 %42, label %43, label %45

43:                                               ; preds = %10, %41
  %44 = call i32 @puts(i8* nonnull dereferenceable(1) getelementptr inbounds ([6 x i8], [6 x i8]* @str, i64 0, i64 0))
  br label %45

45:                                               ; preds = %43, %41
  call void @llvm.lifetime.end.p0i8(i64 4, i8* nonnull %2) #5
  ret i32 0
}

; Function Attrs: argmemonly mustprogress nofree nosync nounwind willreturn
declare void @llvm.lifetime.start.p0i8(i64 immarg, i8* nocapture) #1

; Function Attrs: nofree nounwind
declare noundef i32 @__isoc99_scanf(i8* nocapture noundef readonly, ...) local_unnamed_addr #2

; Function Attrs: mustprogress nofree nounwind willreturn
declare double @sqrt(double) local_unnamed_addr #3

; Function Attrs: nofree nounwind
declare noundef i32 @printf(i8* nocapture noundef readonly, ...) local_unnamed_addr #2

; Function Attrs: argmemonly mustprogress nofree nosync nounwind willreturn
declare void @llvm.lifetime.end.p0i8(i64 immarg, i8* nocapture) #1

; Function Attrs: nofree nounwind
declare noundef i32 @puts(i8* nocapture noundef readonly) local_unnamed_addr #4


!llvm.module.flags = !{!0, !1, !2, !3}
!llvm.ident = !{!4}

!0 = !{i32 1, !"wchar_size", i32 4}
!1 = !{i32 7, !"PIC Level", i32 2}
!2 = !{i32 7, !"PIE Level", i32 2}
!3 = !{i32 7, !"uwtable", i32 1}
!4 = !{!"clang version 13.0.0"}
!5 = !{!6, !6, i64 0}
!6 = !{!"int", !7, i64 0}
!7 = !{!"omnipotent char", !8, i64 0}
!8 = !{!"Simple C/C++ TBAA"}
!9 = !{!"branch_weights", i32 1, i32 2000}
!10 = distinct !{!10, !11}
!11 = !{!"llvm.loop.mustprogress"}
!12 = distinct !{!12, !11}
